target datalayout = "e-m:e-p270:32:32-p271:32:32-p272:64:64-i64:64-i128:128-f80:128-n8:16:32:64-S128"
target triple = "x86_64-pc-linux-gnu"

; Function Attrs: mustprogress nounwind uwtable
define noundef i32 @_ZN4Cube11CornerIndexEiii(i32 noundef %0, i32 noundef %1, i32 noundef %2) #1 align 2 {
  %4 = alloca i32, align 4
  %5 = alloca i32, align 4
  %6 = alloca i32, align 4
  store i32 %0, ptr %4, align 4
  store i32 %1, ptr %5, align 4
  store i32 %2, ptr %6, align 4
  %7 = load i32, ptr %6, align 4
  %8 = shl i32 %7, 2
  %9 = load i32, ptr %5, align 4
  %10 = shl i32 %9, 1
  %11 = or i32 %8, %10
  %12 = load i32, ptr %4, align 4
  %13 = or i32 %11, %12
  ret i32 %13
}

; Function Attrs: mustprogress nounwind uwtable
define void @_ZN4Cube15FactorEdgeIndexEiRiS0_S0_(i32 noundef %0, ptr noundef nonnull align 4 dereferenceable(4) %1, ptr noundef nonnull align 4 dereferenceable(4) %2, ptr noundef nonnull align 4 dereferenceable(4) %3) #1 align 2 {
  %5 = alloca i32, align 4
  %6 = alloca ptr, align 8
  %7 = alloca ptr, align 8
  %8 = alloca ptr, align 8
  store i32 %0, ptr %5, align 4
  store ptr %1, ptr %6, align 8
  store ptr %2, ptr %7, align 8
  store ptr %3, ptr %8, align 8
  %9 = load i32, ptr %5, align 4
  %10 = ashr i32 %9, 2
  %11 = load ptr, ptr %6, align 8
  store i32 %10, ptr %11, align 4
  %12 = load i32, ptr %5, align 4
  %13 = and i32 %12, 1
  %14 = load ptr, ptr %7, align 8
  store i32 %13, ptr %14, align 4
  %15 = load i32, ptr %5, align 4
  %16 = and i32 %15, 2
  %17 = ashr i32 %16, 1
  %18 = load ptr, ptr %8, align 8
  store i32 %17, ptr %18, align 4
  ret void
}

; Function Attrs: mustprogress nounwind uwtable
define void @_ZN4Cube11EdgeCornersEiRiS0_(i32 noundef %0, ptr noundef nonnull align 4 dereferenceable(4) %1, ptr noundef nonnull align 4 dereferenceable(4) %2) #1 align 2 {
  %4 = alloca i32, align 4
  %5 = alloca ptr, align 8
  %6 = alloca ptr, align 8
  %7 = alloca i32, align 4
  %8 = alloca i32, align 4
  %9 = alloca i32, align 4
  store i32 %0, ptr %4, align 4
  store ptr %1, ptr %5, align 8
  store ptr %2, ptr %6, align 8
  %10 = load i32, ptr %4, align 4
  call void @_ZN4Cube15FactorEdgeIndexEiRiS0_S0_(i32 noundef %10, ptr noundef nonnull align 4 dereferenceable(4) %7, ptr noundef nonnull align 4 dereferenceable(4) %8, ptr noundef nonnull align 4 dereferenceable(4) %9)
  %11 = load i32, ptr %7, align 4
  switch i32 %11, label %39 [
    i32 0, label %12
    i32 1, label %21
    i32 2, label %30
  ]

12:                                               ; preds = %3
  %13 = load i32, ptr %8, align 4
  %14 = load i32, ptr %9, align 4
  %15 = call noundef i32 @_ZN4Cube11CornerIndexEiii(i32 noundef 0, i32 noundef %13, i32 noundef %14)
  %16 = load ptr, ptr %5, align 8
  store i32 %15, ptr %16, align 4
  %17 = load i32, ptr %8, align 4
  %18 = load i32, ptr %9, align 4
  %19 = call noundef i32 @_ZN4Cube11CornerIndexEiii(i32 noundef 1, i32 noundef %17, i32 noundef %18)
  %20 = load ptr, ptr %6, align 8
  store i32 %19, ptr %20, align 4
  br label %39

21:                                               ; preds = %3
  %22 = load i32, ptr %8, align 4
  %23 = load i32, ptr %9, align 4
  %24 = call noundef i32 @_ZN4Cube11CornerIndexEiii(i32 noundef %22, i32 noundef 0, i32 noundef %23)
  %25 = load ptr, ptr %5, align 8
  store i32 %24, ptr %25, align 4
  %26 = load i32, ptr %8, align 4
  %27 = load i32, ptr %9, align 4
  %28 = call noundef i32 @_ZN4Cube11CornerIndexEiii(i32 noundef %26, i32 noundef 1, i32 noundef %27)
  %29 = load ptr, ptr %6, align 8
  store i32 %28, ptr %29, align 4
  br label %39

30:                                               ; preds = %3
  %31 = load i32, ptr %8, align 4
  %32 = load i32, ptr %9, align 4
  %33 = call noundef i32 @_ZN4Cube11CornerIndexEiii(i32 noundef %31, i32 noundef %32, i32 noundef 0)
  %34 = load ptr, ptr %5, align 8
  store i32 %33, ptr %34, align 4
  %35 = load i32, ptr %8, align 4
  %36 = load i32, ptr %9, align 4
  %37 = call noundef i32 @_ZN4Cube11CornerIndexEiii(i32 noundef %35, i32 noundef %36, i32 noundef 1)
  %38 = load ptr, ptr %6, align 8
  store i32 %37, ptr %38, align 4
  br label %39

39:                                               ; preds = %30, %21, %12, %3
  ret void
}