; Function Attrs: mustprogress nofree norecurse nosync nounwind willreturn memory(argmem: write) uwtable
define void @_ZN4Cube11EdgeCornersEiRiS0_(i32 noundef %0, ptr noundef nonnull writeonly align 4 captures(none) dereferenceable(4) %1, ptr noundef nonnull writeonly align 4 captures(none) dereferenceable(4) %2) local_unnamed_addr #1 align 2 {
  %4 = ashr i32 %0, 2
  %5 = and i32 %0, 1
  %6 = lshr i32 %0, 1
  %7 = and i32 %6, 1
  switch i32 %4, label %19 [
    i32 0, label %8
    i32 1, label %13
    i32 2, label %17
  ]

8:                                                ; preds = %3
  %9 = shl nuw nsw i32 %7, 2
  %10 = shl nuw nsw i32 %5, 1
  %11 = or disjoint i32 %9, %10
  store i32 %11, ptr %1, align 4
  %12 = or disjoint i32 %11, 1
  br label %.sink.split

13:                                               ; preds = %3
  %14 = shl nuw nsw i32 %7, 2
  %15 = or disjoint i32 %14, %5
  store i32 %15, ptr %1, align 4
  %16 = or disjoint i32 %15, 2
  br label %.sink.split

17:                                               ; preds = %3
  %urem = and i32 %0, 3
  store i32 %urem, ptr %1, align 4
  %18 = or disjoint i32 %urem, 4
  br label %.sink.split

.sink.split:                                      ; preds = %8, %13, %17
  %.sink = phi i32 [ %18, %17 ], [ %16, %13 ], [ %12, %8 ]
  store i32 %.sink, ptr %2, align 4
  br label %19

19:                                               ; preds = %.sink.split, %3
  ret void
}